target datalayout = "e-m:e-p270:32:32-p271:32:32-p272:64:64-i64:64-i128:128-f80:128-n8:16:32:64-S128"
target triple = "x86_64-pc-linux-gnu"

%struct.node_record = type { ptr, ptr, i16, i64, i64, ptr, ptr, ptr, i16, ptr, i16, i16, i32, i32, i64, ptr, i16, i16, ptr, ptr, ptr, ptr, ptr, i64, i64, ptr, ptr, ptr, ptr, i32, ptr, ptr, i64, i64, i32, ptr, i64, ptr, i32, i16, ptr, ptr, i32, ptr, i32, i8, ptr, i32, i16, i16, ptr, i16, i64, i16, i64, ptr, i64, i32, i16, i64, i16, ptr, i16, i64, ptr, i64, i16, i32, i16, ptr, ptr, ptr, i16, i32, i16, i16, i32, ptr, i16, i32 }

; Function Attrs: nounwind uwtable
define dso_local void @set_node_comm_name(ptr noundef %0, ptr noundef %1, ptr noundef %2) #0 {
  %4 = alloca ptr, align 8
  %5 = alloca ptr, align 8
  %6 = alloca ptr, align 8
  store ptr %0, ptr %4, align 8
  store ptr %1, ptr %5, align 8
  store ptr %2, ptr %6, align 8
  %7 = load ptr, ptr %4, align 8
  %8 = getelementptr inbounds nuw %struct.node_record, ptr %7, i32 0, i32 6
  call void @slurm_xfree(ptr noundef %8)
  %9 = load ptr, ptr %5, align 8
  %10 = icmp ne ptr %9, null
  br i1 %10, label %11, label %13

11:                                               ; preds = %3
  %12 = load ptr, ptr %5, align 8
  br label %15

13:                                               ; preds = %3
  %14 = load ptr, ptr %6, align 8
  br label %15

15:                                               ; preds = %13, %11
  %16 = phi ptr [ %12, %11 ], [ %14, %13 ]
  %17 = call ptr @xstrdup(ptr noundef %16)
  %18 = load ptr, ptr %4, align 8
  %19 = getelementptr inbounds nuw %struct.node_record, ptr %18, i32 0, i32 6
  store ptr %17, ptr %19, align 8
  %20 = load ptr, ptr %4, align 8
  %21 = getelementptr inbounds nuw %struct.node_record, ptr %20, i32 0, i32 40
  call void @slurm_xfree(ptr noundef %21)
  %22 = load ptr, ptr %6, align 8
  %23 = call ptr @xstrdup(ptr noundef %22)
  %24 = load ptr, ptr %4, align 8
  %25 = getelementptr inbounds nuw %struct.node_record, ptr %24, i32 0, i32 40
  store ptr %23, ptr %25, align 8
  %26 = load ptr, ptr %4, align 8
  %27 = getelementptr inbounds nuw %struct.node_record, ptr %26, i32 0, i32 37
  %28 = load ptr, ptr %27, align 8
  %29 = load ptr, ptr %4, align 8
  %30 = getelementptr inbounds nuw %struct.node_record, ptr %29, i32 0, i32 6
  %31 = load ptr, ptr %30, align 8
  %32 = load ptr, ptr %4, align 8
  %33 = getelementptr inbounds nuw %struct.node_record, ptr %32, i32 0, i32 40
  %34 = load ptr, ptr %33, align 8
  call void @slurm_reset_alias(ptr noundef %28, ptr noundef %31, ptr noundef %34)
  ret void
}