; Function Attrs: nounwind uwtable
define dso_local void @set_node_comm_name(ptr noundef %0, ptr noundef %1, ptr noundef %2) local_unnamed_addr #0 {
  %4 = getelementptr inbounds nuw i8, ptr %0, i64 48
  tail call void @slurm_xfree(ptr noundef nonnull %4) #15
  %.not = icmp eq ptr %1, null
  %5 = select i1 %.not, ptr %2, ptr %1
  %6 = tail call ptr @xstrdup(ptr noundef %5) #15
  store ptr %6, ptr %4, align 8
  %7 = getelementptr inbounds nuw i8, ptr %0, i64 288
  tail call void @slurm_xfree(ptr noundef nonnull %7) #15
  %8 = tail call ptr @xstrdup(ptr noundef %2) #15
  store ptr %8, ptr %7, align 8
  %9 = getelementptr inbounds nuw i8, ptr %0, i64 272
  %10 = load ptr, ptr %9, align 8
  %11 = load ptr, ptr %4, align 8
  tail call void @slurm_reset_alias(ptr noundef %10, ptr noundef %11, ptr noundef %8) #15
  ret void
}